(dp0
I0
S'ns:award.award_nominee.award_nominations..award.award_nomination.award_nominee'
p1
sI1
S'ns:organization.organization.phone_number..common.phone_number.service_location'
p2
sI2
S'ns:music.musical_group.member..music.group_membership.member'
p3
sI3
S'ns:tv.tv_actor.starring_roles..tv.regular_tv_appearance.series'
p4
sI4
S'ns:film.actor.film..film.performance.film'
p5
sI5
S'ns:organization.organization.headquarters..location.mailing_address.state_province_region'
p6
sI6
S'ns:award.award_category.winners..award.award_honor.award_winner'
p7
sI7
S'ns:education.field_of_study.students_majoring..education.education.degree'
p8
sI8
S'ns:tv.tv_network.programs..tv.tv_network_duration.program'
p9
sI9
S'ns:sports.sports_team.arena_stadium'
p10
sI10
S'ns:location.statistical_region.places_exported_to..location.imports_and_exports.exported_to'
p11
sI11
S'ns:book.newspaper.circulation_areas'
p12
sI12
S'ns:government.governmental_body.members..government.government_position_held.office_holder'
p13
sI13
S'ns:people.person.employment_history..business.employment_tenure.company'
p14
sI14
S'ns:music.artist.album'
p15
sI15
S'ns:government.politician.government_positions_held..government.government_position_held.jurisdiction_of_office'
p16
sI16
S'ns:education.educational_institution.students_graduates..education.education.major_field_of_study'
p17
sI17
S'ns:geography.river.cities'
p18
sI18
S'ns:computer.software.developer'
p19
sI19
S'ns:award.award_winner.awards_won..award.award_honor.award'
p20
sI20
S'ns:computer.operating_system_developer.operating_systems_developed'
p21
sI21
S'ns:film.film.starring..film.performance.actor'
p22
sI22
S'ns:music.group_member.membership..music.group_membership.group'
p23
sI23
S'ns:government.politician.government_positions_held..government.government_position_held.district_represented'
p24
sI24
S'ns:location.statistical_region.places_imported_from..location.imports_and_exports.imported_from'
p25
sI25
S'ns:cvg.cvg_publisher.games_published'
p26
sI26
S'ns:location.location.partially_contains'
p27
sI27
S'ns:location.place_with_neighborhoods.neighborhoods'
p28
sI28
S'ns:base.locations.continents.countries_within'
p29
sI29
S'ns:computer.operating_system.includes_os_versions'
p30
sI30
S'ns:medicine.medical_treatment.used_to_treat'
p31
sI31
S'ns:music.artist.label'
p32
sI32
S'ns:education.educational_degree.people_with_this_degree..education.education.institution'
p33
sI33
S'ns:location.country.official_language'
p34
sI34
S'ns:music.performance_role.track_performances..music.track_contribution.role'
p35
sI35
S'ns:organization.organization.child..organization.organization_relationship.child'
p36
sI36
S'ns:government.politician.government_positions_held..government.government_position_held.governmental_body'
p37
sI37
S'ns:government.political_party.politicians_in_this_party..government.political_party_tenure.politician'
p38
sI38
S'ns:location.location.adjoin_s..location.adjoining_relationship.adjoins'
p39
sI39
S'ns:book.written_work.author'
p40
sI40
S'ns:government.governmental_jurisdiction.governing_officials..government.government_position_held.office_holder'
p41
sI41
S'ns:people.person.places_lived..people.place_lived.location'
p42
sI42
S'ns:education.field_of_study.students_majoring..education.education.major_field_of_study'
p43
sI43
S'ns:influence.influence_node.influenced_by'
p44
sI44
S'ns:cvg.cvg_developer.games_developed'
p45
sI45
S'ns:computer.programming_language.influenced_by'
p46
sI46
S'ns:user.ktrueman.default_domain.international_organization.member_states'
p47
sI47
S'ns:base.locations.countries.continent'
p48
sI48
S'ns:education.educational_institution.students_graduates..education.education.student'
p49
sI49
S'ns:location.hud_county_place.county'
p50
sI50
S'ns:government.governmental_jurisdiction.government_bodies'
p51
sI51
S'ns:award.award_winner.awards_won..award.award_honor.award_winner'
p52
sI52
S'ns:language.human_language.main_country'
p53
sI53
S'ns:location.country.languages_spoken'
p54
sI54
S'ns:business.employer.employees..business.employment_tenure.person'
p55
sI55
S'ns:education.educational_institution.students_graduates..education.education.degree'
p56
sI56
S'ns:sports.sports_league.teams..sports.sports_league_participation.team'
p57
sI57
S'ns:people.person.sibling_s..people.sibling_relationship.sibling'
p58
sI58
S'ns:military.military_combatant.military_conflicts..military.military_combatant_group.combatants'
p59
sI59
S'ns:law.court.legal_cases'
p60
sI60
S'ns:organization.organization.headquarters..location.mailing_address.citytown'
p61
sI61
S'ns:location.location.contains'
p62
sI62
S'ns:government.governmental_jurisdiction.agencies'
p63
sI63
S'ns:government.politician.party..government.political_party_tenure.party'
p64
sI64
S'ns:tv.tv_program.original_network..tv.tv_network_duration.network'
p65
sI65
S'ns:military.military_combatant.military_conflicts..military.military_combatant_group.conflict'
p66
sI66
S'ns:transportation.road.major_cities'
p67
sI67
S'ns:computer.software.compatible_oses..computer.software_compatibility.operating_system'
p68
sI68
S'ns:location.location.containedby'
p69
sI69
S'ns:people.person.parents'
p70
sI70
S'ns:travel.travel_destination.tourist_attractions'
p71
sI71
S'ns:location.location.people_born_here'
p72
sI72
S'ns:organization.organization_member.member_of..organization.organization_membership.organization'
p73
sI73
S'ns:music.artist.track'
p74
sI74
S'ns:education.educational_degree.people_with_this_degree..education.education.major_field_of_study'
p75
sI75
S'ns:organization.membership_organization.members..organization.organization_membership.member'
p76
sI76
S'ns:film.film.country'
p77
sI77
S'ns:periodicals.newspaper_circulation_area.newspapers'
p78
sI78
S'ns:people.person.nationality'
p79
sI79
S'ns:people.person.children'
p80
sI80
S'ns:location.location.partially_containedby'
p81
sI81
S'ns:government.governmental_body.jurisdiction'
p82
sI82
S'ns:location.location.events'
p83
sI83
S'ns:education.field_of_study.students_majoring..education.education.institution'
p84
sI84
S'ns:base.biblioness.bibs_location.state'
p85
sI85
S'ns:military.military_conflict.combatants..military.military_combatant_group.combatants'
p86
sI86
S'ns:time.event.locations'
p87
sI87
S'ns:computer.programming_language.influenced'
p88
sI88
S'ns:education.educational_institution.parent_institution'
p89
sI89
S'ns:influence.influence_node.influenced'
p90
sI90
S'ns:travel.tourist_attraction.near_travel_destination'
p91
sI91
S'ns:government.governmental_body.component_bodies'
p92
sI92
S'ns:music.composer.compositions'
p93
sI93
S'ns:organization.organization.geographic_scope'
p94
sI94
S'ns:base.schemastaging.organization_extra.phone_number..base.schemastaging.phone_sandbox.service_location'
p95
sI95
S'ns:people.deceased_person.place_of_death'
p96
sI96
S'ns:language.human_language.countries_spoken_in'
p97
sI97
S'ns:organization.organization.parent..organization.organization_relationship.parent'
p98
sI98
S'ns:geography.river.basin_countries'
p99
sI99
S'ns:people.person.education..education.education.institution'
p100
sI100
S'ns:influence.influence_node.peers..influence.peer_relationship.peers'
p101
sI101
S'ns:organization.organization_founder.organizations_founded'
p102
sI102
S'ns:government.government_agency.jurisdiction'
p103
sI103
S'ns:computer.software_developer.software'
p104
sI104
S'ns:organization.organization.headquarters..location.mailing_address.country'
p105
sI105
S'ns:book.author.works_written'
p106
sI106
S'ns:sports.sports_team.league..sports.sports_league_participation.league'
p107
sI107
S'ns:base.biblioness.bibs_location.country'
p108
sI108
S'ns:organization.organization_scope.organizations_with_this_scope'
p109
sI109
S'ns:organization.organization.founders'
p110
sI110
S'ns:people.person.place_of_birth'
p111
sI111
S'ns:people.person.spouse_s..people.marriage.spouse'
p112
sI112
S'ns:film.actor.film..film.performance.character'
p113
s.